; Function Attrs: nounwind uwtable
define noalias ptr @l_Lean_Elab_Term_mkMPairs___boxed(ptr noundef %0, ptr noundef %1, ptr noundef %2) local_unnamed_addr #0 {
  %4 = getelementptr i8, ptr %0, i64 8
  %.val.i = load i64, ptr %4, align 8, !tbaa !12
  %5 = and i64 %.val.i, 9223372036854775807
  %6 = icmp eq i64 %5, 0
  %7 = shl i64 %.val.i, 1
  %8 = add i64 %7, -1
  %9 = inttoptr i64 %8 to ptr
  %.1.i.i = select i1 %6, ptr inttoptr (i64 1 to ptr), ptr %9
  %10 = tail call ptr @l_Array_back_x21___rarg(ptr noundef nonnull inttoptr (i64 1 to ptr), ptr noundef nonnull %0) #6
  %11 = tail call noalias ptr @l_Lean_Elab_Term_mkMPairs_loop(ptr noundef nonnull %0, ptr noundef nonnull %.1.i.i, ptr noundef %10, ptr noundef %1, ptr noundef %2)
  %12 = ptrtoint ptr %0 to i64
  %13 = and i64 %12, 1
  %.not = icmp eq i64 %13, 0
  br i1 %.not, label %14, label %lean_dec.exit

14:                                               ; preds = %3
  %15 = load i32, ptr %0, align 4, !tbaa !4
  %16 = icmp sgt i32 %15, 1
  br i1 %16, label %17, label %19, !prof !9

17:                                               ; preds = %14
  %18 = add nsw i32 %15, -1
  store i32 %18, ptr %0, align 4, !tbaa !4
  br label %lean_dec.exit

19:                                               ; preds = %14
  %.not.i = icmp eq i32 %15, 0
  br i1 %.not.i, label %lean_dec.exit, label %20

20:                                               ; preds = %19
  tail call void @lean_dec_ref_cold(ptr noundef nonnull %0) #6
  br label %lean_dec.exit

lean_dec.exit:                                    ; preds = %20, %19, %17, %3
  ret ptr %11
}